target datalayout = "e-m:e-p270:32:32-p271:32:32-p272:64:64-i64:64-i128:128-f80:128-n8:16:32:64-S128"
target triple = "x86_64-unknown-linux-gnu"

%"class.std::vector" = type { %"struct.std::_Vector_base" }
%"struct.std::_Vector_base" = type { %"struct.std::_Vector_base<arrow::Future<std::shared_ptr<arrow::Buffer>>, std::allocator<arrow::Future<std::shared_ptr<arrow::Buffer>>>>::_Vector_impl" }
%"struct.std::_Vector_base<arrow::Future<std::shared_ptr<arrow::Buffer>>, std::allocator<arrow::Future<std::shared_ptr<arrow::Buffer>>>>::_Vector_impl" = type { %"struct.std::_Vector_base<arrow::Future<std::shared_ptr<arrow::Buffer>>, std::allocator<arrow::Future<std::shared_ptr<arrow::Buffer>>>>::_Vector_impl_data" }
%"struct.std::_Vector_base<arrow::Future<std::shared_ptr<arrow::Buffer>>, std::allocator<arrow::Future<std::shared_ptr<arrow::Buffer>>>>::_Vector_impl_data" = type { ptr, ptr, ptr }

; Function Attrs: mustprogress uwtable
define void @_ZN5arrow2io16RandomAccessFile13ReadManyAsyncERKSt6vectorINS0_9ReadRangeESaIS3_EE(ptr noalias sret(%"class.std::vector") align 8 %agg.result, ptr noundef nonnull align 8 dereferenceable(24) %this, ptr noundef nonnull align 8 dereferenceable(24) %ranges) #0 align 2 {
entry:
  %result.ptr = alloca ptr, align 8
  %this.addr = alloca ptr, align 8
  %ranges.addr = alloca ptr, align 8
  store ptr %agg.result, ptr %result.ptr, align 8
  store ptr %this, ptr %this.addr, align 8
  store ptr %ranges, ptr %ranges.addr, align 8
  %this1 = load ptr, ptr %this.addr, align 8
  %vtable = load ptr, ptr %this1, align 8
  %vbase.offset.ptr = getelementptr i8, ptr %vtable, i64 -64
  %vbase.offset = load i64, ptr %vbase.offset.ptr, align 8
  %add.ptr = getelementptr inbounds i8, ptr %this1, i64 %vbase.offset
  %vtable2 = load ptr, ptr %add.ptr, align 8
  %vfn = getelementptr inbounds ptr, ptr %vtable2, i64 4
  %0 = load ptr, ptr %vfn, align 8
  %call = call noundef nonnull align 8 dereferenceable(40) ptr %0(ptr noundef nonnull align 8 dereferenceable(8) %add.ptr)
  %1 = load ptr, ptr %ranges.addr, align 8
  %vtable3 = load ptr, ptr %this1, align 8
  %vfn4 = getelementptr inbounds ptr, ptr %vtable3, i64 13
  %2 = load ptr, ptr %vfn4, align 8
  call void %2(ptr sret(%"class.std::vector") align 8 %agg.result, ptr noundef nonnull align 8 dereferenceable(24) %this1, ptr noundef nonnull align 8 dereferenceable(40) %call, ptr noundef nonnull align 8 dereferenceable(24) %1)
  ret void
}